target datalayout = "e-m:e-p270:32:32-p271:32:32-p272:64:64-i64:64-i128:128-f80:128-n8:16:32:64-S128"
target triple = "x86_64-pc-linux-gnu"

%class.G1Allocator = type { ptr, ptr, i8, i8, i64, ptr, ptr, %class.OldGCAllocRegion, ptr }
%class.OldGCAllocRegion = type { %class.G1GCAllocRegion.base, [7 x i8] }
%class.G1GCAllocRegion.base = type <{ %class.G1AllocRegion.base, [4 x i8], i64, ptr, i8 }>
%class.G1AllocRegion.base = type <{ ptr, ptr, i32, [4 x i8], ptr, i32 }>

; Function Attrs: mustprogress nounwind uwtable
define hidden void @_ZN11G1AllocatorD2Ev(ptr noundef nonnull align 8 dereferenceable(120) %0) unnamed_addr #1 align 2 {
  %2 = alloca ptr, align 8
  %3 = alloca i32, align 4
  store ptr %0, ptr %2, align 8
  %4 = load ptr, ptr %2, align 8
  store i32 0, ptr %3, align 4
  br label %5

5:                                                ; preds = %12, %1
  %6 = load i32, ptr %3, align 4
  %7 = zext i32 %6 to i64
  %8 = getelementptr inbounds %class.G1Allocator, ptr %4, i32 0, i32 4
  %9 = load i64, ptr %8, align 8
  %10 = icmp ult i64 %7, %9
  br i1 %10, label %11, label %15

11:                                               ; preds = %5
  br label %12

12:                                               ; preds = %11
  %13 = load i32, ptr %3, align 4
  %14 = add i32 %13, 1
  store i32 %14, ptr %3, align 4
  br label %5, !llvm.loop !8

15:                                               ; preds = %5
  %16 = getelementptr inbounds %class.G1Allocator, ptr %4, i32 0, i32 5
  %17 = load ptr, ptr %16, align 8
  call void @_Z8FreeHeapPv(ptr noundef %17)
  %18 = getelementptr inbounds %class.G1Allocator, ptr %4, i32 0, i32 6
  %19 = load ptr, ptr %18, align 8
  call void @_Z8FreeHeapPv(ptr noundef %19)
  ret void
}