; Function Attrs: mustprogress nounwind uwtable
define hidden void @_ZN11G1AllocatorD2Ev(ptr nocapture noundef nonnull readonly align 8 dereferenceable(120) %0) unnamed_addr #0 align 2 {
  %2 = getelementptr inbounds i8, ptr %0, i64 32
  %3 = load ptr, ptr %2, align 8
  tail call void @_Z8FreeHeapPv(ptr noundef %3) #15
  %4 = getelementptr inbounds i8, ptr %0, i64 40
  %5 = load ptr, ptr %4, align 8
  tail call void @_Z8FreeHeapPv(ptr noundef %5) #15
  ret void
}